target datalayout = "e-m:e-p270:32:32-p271:32:32-p272:64:64-i64:64-i128:128-f80:128-n8:16:32:64-S128"
target triple = "x86_64-pc-linux-gnu"

%struct._ftype_t = type { i32, i32, ptr, ptr, ptr, ptr, ptr, ptr, ptr, ptr, ptr, ptr, ptr, ptr, ptr, %union.anon, %union.anon.0, ptr, ptr, ptr, ptr, ptr, ptr, ptr, ptr, ptr, ptr, ptr, ptr, ptr, ptr, ptr }
%union.anon = type { ptr }
%union.anon.0 = type { ptr }

@type_list = hidden global [48 x ptr] zeroinitializer, align 16
@.str.3 = private unnamed_addr constant [7 x i8] c"(null)\00", align 1
@.str.4 = private unnamed_addr constant [8 x i8] c"FT_NONE\00", align 1
@.str.5 = private unnamed_addr constant [12 x i8] c"FT_PROTOCOL\00", align 1
@.str.6 = private unnamed_addr constant [11 x i8] c"FT_BOOLEAN\00", align 1
@.str.7 = private unnamed_addr constant [8 x i8] c"FT_CHAR\00", align 1
@.str.8 = private unnamed_addr constant [9 x i8] c"FT_UINT8\00", align 1
@.str.9 = private unnamed_addr constant [10 x i8] c"FT_UINT16\00", align 1
@.str.10 = private unnamed_addr constant [10 x i8] c"FT_UINT24\00", align 1
@.str.11 = private unnamed_addr constant [10 x i8] c"FT_UINT32\00", align 1
@.str.12 = private unnamed_addr constant [10 x i8] c"FT_UINT40\00", align 1
@.str.13 = private unnamed_addr constant [10 x i8] c"FT_UINT48\00", align 1
@.str.14 = private unnamed_addr constant [10 x i8] c"FT_UINT56\00", align 1
@.str.15 = private unnamed_addr constant [10 x i8] c"FT_UINT64\00", align 1
@.str.16 = private unnamed_addr constant [8 x i8] c"FT_INT8\00", align 1
@.str.17 = private unnamed_addr constant [9 x i8] c"FT_INT16\00", align 1
@.str.18 = private unnamed_addr constant [9 x i8] c"FT_INT24\00", align 1
@.str.19 = private unnamed_addr constant [9 x i8] c"FT_INT32\00", align 1
@.str.20 = private unnamed_addr constant [9 x i8] c"FT_INT40\00", align 1
@.str.21 = private unnamed_addr constant [9 x i8] c"FT_INT48\00", align 1
@.str.22 = private unnamed_addr constant [9 x i8] c"FT_INT56\00", align 1
@.str.23 = private unnamed_addr constant [9 x i8] c"FT_INT64\00", align 1
@.str.24 = private unnamed_addr constant [21 x i8] c"FT_IEEE_11073_SFLOAT\00", align 1
@.str.25 = private unnamed_addr constant [20 x i8] c"FT_IEEE_11073_FLOAT\00", align 1
@.str.26 = private unnamed_addr constant [9 x i8] c"FT_FLOAT\00", align 1
@.str.27 = private unnamed_addr constant [10 x i8] c"FT_DOUBLE\00", align 1
@.str.28 = private unnamed_addr constant [17 x i8] c"FT_ABSOLUTE_TIME\00", align 1
@.str.29 = private unnamed_addr constant [17 x i8] c"FT_RELATIVE_TIME\00", align 1
@.str.30 = private unnamed_addr constant [10 x i8] c"FT_STRING\00", align 1
@.str.31 = private unnamed_addr constant [11 x i8] c"FT_STRINGZ\00", align 1
@.str.32 = private unnamed_addr constant [15 x i8] c"FT_UINT_STRING\00", align 1
@.str.33 = private unnamed_addr constant [9 x i8] c"FT_ETHER\00", align 1
@.str.34 = private unnamed_addr constant [9 x i8] c"FT_BYTES\00", align 1
@.str.35 = private unnamed_addr constant [14 x i8] c"FT_UINT_BYTES\00", align 1
@.str.36 = private unnamed_addr constant [8 x i8] c"FT_IPv4\00", align 1
@.str.37 = private unnamed_addr constant [8 x i8] c"FT_IPv6\00", align 1
@.str.38 = private unnamed_addr constant [10 x i8] c"FT_IPXNET\00", align 1
@.str.39 = private unnamed_addr constant [12 x i8] c"FT_FRAMENUM\00", align 1
@.str.40 = private unnamed_addr constant [8 x i8] c"FT_GUID\00", align 1
@.str.41 = private unnamed_addr constant [7 x i8] c"FT_OID\00", align 1
@.str.42 = private unnamed_addr constant [9 x i8] c"FT_EUI64\00", align 1
@.str.43 = private unnamed_addr constant [8 x i8] c"FT_AX25\00", align 1
@.str.44 = private unnamed_addr constant [9 x i8] c"FT_VINES\00", align 1
@.str.45 = private unnamed_addr constant [11 x i8] c"FT_REL_OID\00", align 1
@.str.46 = private unnamed_addr constant [13 x i8] c"FT_SYSTEM_ID\00", align 1
@.str.47 = private unnamed_addr constant [14 x i8] c"FT_STRINGZPAD\00", align 1
@.str.48 = private unnamed_addr constant [9 x i8] c"FT_FCWWN\00", align 1
@.str.49 = private unnamed_addr constant [16 x i8] c"FT_STRINGZTRUNC\00", align 1
@.str.50 = private unnamed_addr constant [13 x i8] c"FT_NUM_TYPES\00", align 1
@.str.51 = private unnamed_addr constant [10 x i8] c"FT_SCALAR\00", align 1

; Function Attrs: nounwind null_pointer_is_valid sspstrong uwtable
define ptr @ftype_name(i32 noundef %0) #2 {
  %2 = alloca i32, align 4
  %3 = alloca ptr, align 8
  %4 = alloca ptr, align 8
  store i32 %0, ptr %2, align 4
  call void @llvm.lifetime.start.p0(i64 8, ptr %3) #9
  call void @llvm.lifetime.start.p0(i64 8, ptr %4) #9
  store ptr @.str.3, ptr %4, align 8
  br label %5

5:                                                ; preds = %1
  br label %6

6:                                                ; preds = %5
  br label %7

7:                                                ; preds = %6
  %8 = load i32, ptr %2, align 4
  %9 = zext i32 %8 to i64
  %10 = getelementptr [48 x ptr], ptr @type_list, i64 0, i64 %9
  %11 = load ptr, ptr %10, align 8
  store ptr %11, ptr %3, align 8
  %12 = load ptr, ptr %3, align 8
  %13 = getelementptr inbounds nuw %struct._ftype_t, ptr %12, i32 0, i32 0
  %14 = load i32, ptr %13, align 8
  switch i32 %14, label %63 [
    i32 0, label %15
    i32 1, label %16
    i32 2, label %17
    i32 3, label %18
    i32 4, label %19
    i32 5, label %20
    i32 6, label %21
    i32 7, label %22
    i32 8, label %23
    i32 9, label %24
    i32 10, label %25
    i32 11, label %26
    i32 12, label %27
    i32 13, label %28
    i32 14, label %29
    i32 15, label %30
    i32 16, label %31
    i32 17, label %32
    i32 18, label %33
    i32 19, label %34
    i32 20, label %35
    i32 21, label %36
    i32 22, label %37
    i32 23, label %38
    i32 24, label %39
    i32 25, label %40
    i32 26, label %41
    i32 27, label %42
    i32 28, label %43
    i32 29, label %44
    i32 30, label %45
    i32 31, label %46
    i32 32, label %47
    i32 33, label %48
    i32 34, label %49
    i32 35, label %50
    i32 36, label %51
    i32 37, label %52
    i32 38, label %53
    i32 39, label %54
    i32 40, label %55
    i32 41, label %56
    i32 42, label %57
    i32 43, label %58
    i32 44, label %59
    i32 45, label %60
    i32 46, label %61
    i32 47, label %62
  ]

15:                                               ; preds = %7
  store ptr @.str.4, ptr %4, align 8
  br label %63

16:                                               ; preds = %7
  store ptr @.str.5, ptr %4, align 8
  br label %63

17:                                               ; preds = %7
  store ptr @.str.6, ptr %4, align 8
  br label %63

18:                                               ; preds = %7
  store ptr @.str.7, ptr %4, align 8
  br label %63

19:                                               ; preds = %7
  store ptr @.str.8, ptr %4, align 8
  br label %63

20:                                               ; preds = %7
  store ptr @.str.9, ptr %4, align 8
  br label %63

21:                                               ; preds = %7
  store ptr @.str.10, ptr %4, align 8
  br label %63

22:                                               ; preds = %7
  store ptr @.str.11, ptr %4, align 8
  br label %63

23:                                               ; preds = %7
  store ptr @.str.12, ptr %4, align 8
  br label %63

24:                                               ; preds = %7
  store ptr @.str.13, ptr %4, align 8
  br label %63

25:                                               ; preds = %7
  store ptr @.str.14, ptr %4, align 8
  br label %63

26:                                               ; preds = %7
  store ptr @.str.15, ptr %4, align 8
  br label %63

27:                                               ; preds = %7
  store ptr @.str.16, ptr %4, align 8
  br label %63

28:                                               ; preds = %7
  store ptr @.str.17, ptr %4, align 8
  br label %63

29:                                               ; preds = %7
  store ptr @.str.18, ptr %4, align 8
  br label %63

30:                                               ; preds = %7
  store ptr @.str.19, ptr %4, align 8
  br label %63

31:                                               ; preds = %7
  store ptr @.str.20, ptr %4, align 8
  br label %63

32:                                               ; preds = %7
  store ptr @.str.21, ptr %4, align 8
  br label %63

33:                                               ; preds = %7
  store ptr @.str.22, ptr %4, align 8
  br label %63

34:                                               ; preds = %7
  store ptr @.str.23, ptr %4, align 8
  br label %63

35:                                               ; preds = %7
  store ptr @.str.24, ptr %4, align 8
  br label %63

36:                                               ; preds = %7
  store ptr @.str.25, ptr %4, align 8
  br label %63

37:                                               ; preds = %7
  store ptr @.str.26, ptr %4, align 8
  br label %63

38:                                               ; preds = %7
  store ptr @.str.27, ptr %4, align 8
  br label %63

39:                                               ; preds = %7
  store ptr @.str.28, ptr %4, align 8
  br label %63

40:                                               ; preds = %7
  store ptr @.str.29, ptr %4, align 8
  br label %63

41:                                               ; preds = %7
  store ptr @.str.30, ptr %4, align 8
  br label %63

42:                                               ; preds = %7
  store ptr @.str.31, ptr %4, align 8
  br label %63

43:                                               ; preds = %7
  store ptr @.str.32, ptr %4, align 8
  br label %63

44:                                               ; preds = %7
  store ptr @.str.33, ptr %4, align 8
  br label %63

45:                                               ; preds = %7
  store ptr @.str.34, ptr %4, align 8
  br label %63

46:                                               ; preds = %7
  store ptr @.str.35, ptr %4, align 8
  br label %63

47:                                               ; preds = %7
  store ptr @.str.36, ptr %4, align 8
  br label %63

48:                                               ; preds = %7
  store ptr @.str.37, ptr %4, align 8
  br label %63

49:                                               ; preds = %7
  store ptr @.str.38, ptr %4, align 8
  br label %63

50:                                               ; preds = %7
  store ptr @.str.39, ptr %4, align 8
  br label %63

51:                                               ; preds = %7
  store ptr @.str.40, ptr %4, align 8
  br label %63

52:                                               ; preds = %7
  store ptr @.str.41, ptr %4, align 8
  br label %63

53:                                               ; preds = %7
  store ptr @.str.42, ptr %4, align 8
  br label %63

54:                                               ; preds = %7
  store ptr @.str.43, ptr %4, align 8
  br label %63

55:                                               ; preds = %7
  store ptr @.str.44, ptr %4, align 8
  br label %63

56:                                               ; preds = %7
  store ptr @.str.45, ptr %4, align 8
  br label %63

57:                                               ; preds = %7
  store ptr @.str.46, ptr %4, align 8
  br label %63

58:                                               ; preds = %7
  store ptr @.str.47, ptr %4, align 8
  br label %63

59:                                               ; preds = %7
  store ptr @.str.48, ptr %4, align 8
  br label %63

60:                                               ; preds = %7
  store ptr @.str.49, ptr %4, align 8
  br label %63

61:                                               ; preds = %7
  store ptr @.str.50, ptr %4, align 8
  br label %63

62:                                               ; preds = %7
  store ptr @.str.51, ptr %4, align 8
  br label %63

63:                                               ; preds = %7, %62, %61, %60, %59, %58, %57, %56, %55, %54, %53, %52, %51, %50, %49, %48, %47, %46, %45, %44, %43, %42, %41, %40, %39, %38, %37, %36, %35, %34, %33, %32, %31, %30, %29, %28, %27, %26, %25, %24, %23, %22, %21, %20, %19, %18, %17, %16, %15
  %64 = load ptr, ptr %4, align 8
  call void @llvm.lifetime.end.p0(i64 8, ptr %4) #9
  call void @llvm.lifetime.end.p0(i64 8, ptr %3) #9
  ret ptr %64
}