; Function Attrs: mustprogress nofree norecurse nosync nounwind null_pointer_is_valid sspstrong willreturn memory(read, inaccessiblemem: none) uwtable
define noundef nonnull ptr @ftype_name(i32 noundef %0) local_unnamed_addr #4 {
  %2 = zext i32 %0 to i64
  %3 = getelementptr [48 x ptr], ptr @type_list, i64 0, i64 %2
  %4 = load ptr, ptr %3, align 8
  %5 = load i32, ptr %4, align 8
  %6 = icmp ult i32 %5, 48
  br i1 %6, label %switch.lookup, label %8

switch.lookup:                                    ; preds = %1
  %7 = zext nneg i32 %5 to i64
  %switch.gep = getelementptr inbounds nuw [48 x ptr], ptr @switch.table.fvalue_type_name, i64 0, i64 %7
  %switch.load = load ptr, ptr %switch.gep, align 8
  br label %8

8:                                                ; preds = %switch.lookup, %1
  %.0 = phi ptr [ @.str.3, %1 ], [ %switch.load, %switch.lookup ]
  ret ptr %.0
}